target datalayout = "e-m:e-p270:32:32-p271:32:32-p272:64:64-i64:64-i128:128-f80:128-n8:16:32:64-S128"
target triple = "x86_64-pc-linux-gnu"

%struct.mi_page_queue_s = type { ptr, ptr, i64 }
%struct.mi_stats_s = type { %struct.mi_stat_count_s, %struct.mi_stat_count_s, %struct.mi_stat_count_s, %struct.mi_stat_count_s, %struct.mi_stat_count_s, %struct.mi_stat_count_s, %struct.mi_stat_count_s, %struct.mi_stat_count_s, %struct.mi_stat_count_s, %struct.mi_stat_count_s, %struct.mi_stat_count_s, %struct.mi_stat_count_s, %struct.mi_stat_count_s, %struct.mi_stat_count_s, %struct.mi_stat_count_s, %struct.mi_stat_counter_s, %struct.mi_stat_counter_s, %struct.mi_stat_counter_s, %struct.mi_stat_counter_s, %struct.mi_stat_counter_s, %struct.mi_stat_counter_s, %struct.mi_stat_counter_s, %struct.mi_stat_counter_s, %struct.mi_stat_counter_s, %struct.mi_stat_counter_s, %struct.mi_stat_counter_s, %struct.mi_stat_counter_s, %struct.mi_stat_counter_s }
%struct.mi_stat_count_s = type { i64, i64, i64, i64 }
%struct.mi_stat_counter_s = type { i64, i64 }
%struct.mi_subproc_s = type { i64, i64, %union.pthread_mutex_t, %union.pthread_mutex_t, ptr, ptr, %struct.mi_memid_s }
%union.pthread_mutex_t = type { %struct.__pthread_mutex_s }
%struct.__pthread_mutex_s = type { i32, i32, i32, i32, i32, i16, i16, %struct.__pthread_internal_list }
%struct.__pthread_internal_list = type { ptr, ptr }
%struct.mi_memid_s = type { %union.anon, i8, i8, i8, i32 }
%union.anon = type { %struct.mi_memid_os_info }
%struct.mi_memid_os_info = type { ptr, i64 }
%struct.mi_segments_tld_s = type { %struct.mi_segment_queue_s, %struct.mi_segment_queue_s, %struct.mi_page_queue_s, i64, i64, i64, i64, i64, ptr, ptr }
%struct.mi_segment_queue_s = type { ptr, ptr }
%struct.mi_tld_s = type { i64, i8, ptr, ptr, %struct.mi_segments_tld_s, %struct.mi_stats_s }

@mi_subproc_default = internal global %struct.mi_subproc_s zeroinitializer, align 64

; Function Attrs: inlinehint nounwind uwtable
define internal void @_mi_memzero(ptr noundef %0, i64 noundef %1) #1 {
  %3 = alloca ptr, align 8
  %4 = alloca i64, align 8
  store ptr %0, ptr %3, align 8, !tbaa !27
  store i64 %1, ptr %4, align 8, !tbaa !8
  %5 = load ptr, ptr %3, align 8, !tbaa !27
  %6 = load i64, ptr %4, align 8, !tbaa !8
  call void @llvm.memset.p0.i64(ptr align 1 %5, i8 0, i64 %6, i1 false)
  ret void
}

; Function Attrs: inlinehint nounwind uwtable
define internal void @_mi_memzero_aligned(ptr noundef %0, i64 noundef %1) #1 {
  %3 = alloca ptr, align 8
  %4 = alloca i64, align 8
  %5 = alloca ptr, align 8
  store ptr %0, ptr %3, align 8, !tbaa !27
  store i64 %1, ptr %4, align 8, !tbaa !8
  call void @llvm.lifetime.start.p0(i64 8, ptr %5) #12
  %6 = load ptr, ptr %3, align 8, !tbaa !27
  call void @llvm.assume(i1 true) [ "align"(ptr %6, i64 8) ]
  store ptr %6, ptr %5, align 8, !tbaa !27
  %7 = load ptr, ptr %5, align 8, !tbaa !27
  %8 = load i64, ptr %4, align 8, !tbaa !8
  call void @_mi_memzero(ptr noundef %7, i64 noundef %8) #11
  call void @llvm.lifetime.end.p0(i64 8, ptr %5) #12
  ret void
}

; Function Attrs: nounwind uwtable
define hidden void @_mi_tld_init(ptr noundef %0, ptr noundef %1) #0 {
  %3 = alloca ptr, align 8
  %4 = alloca ptr, align 8
  store ptr %0, ptr %3, align 8, !tbaa !47
  store ptr %1, ptr %4, align 8, !tbaa !3
  %5 = load ptr, ptr %3, align 8, !tbaa !47
  call void @_mi_memzero_aligned(ptr noundef %5, i64 noundef 832) #11
  %6 = load ptr, ptr %4, align 8, !tbaa !3
  %7 = load ptr, ptr %3, align 8, !tbaa !47
  %8 = getelementptr inbounds nuw %struct.mi_tld_s, ptr %7, i32 0, i32 2
  store ptr %6, ptr %8, align 8, !tbaa !48
  %9 = load ptr, ptr %3, align 8, !tbaa !47
  %10 = getelementptr inbounds nuw %struct.mi_tld_s, ptr %9, i32 0, i32 3
  store ptr null, ptr %10, align 8, !tbaa !49
  %11 = load ptr, ptr %3, align 8, !tbaa !47
  %12 = getelementptr inbounds nuw %struct.mi_tld_s, ptr %11, i32 0, i32 4
  %13 = getelementptr inbounds nuw %struct.mi_segments_tld_s, ptr %12, i32 0, i32 8
  store ptr @mi_subproc_default, ptr %13, align 8, !tbaa !33
  %14 = load ptr, ptr %3, align 8, !tbaa !47
  %15 = getelementptr inbounds nuw %struct.mi_tld_s, ptr %14, i32 0, i32 5
  %16 = load ptr, ptr %3, align 8, !tbaa !47
  %17 = getelementptr inbounds nuw %struct.mi_tld_s, ptr %16, i32 0, i32 4
  %18 = getelementptr inbounds nuw %struct.mi_segments_tld_s, ptr %17, i32 0, i32 9
  store ptr %15, ptr %18, align 8, !tbaa !50
  ret void
}