; Function Attrs: mustprogress nofree norecurse nosync nounwind willreturn memory(argmem: write, inaccessiblemem: write) uwtable
define hidden void @_mi_tld_init(ptr noundef %0, ptr noundef %1) local_unnamed_addr #5 {
  call void @llvm.assume(i1 true) [ "align"(ptr %0, i64 8) ]
  tail call void @llvm.memset.p0.i64(ptr noundef nonnull align 8 dereferenceable(832) %0, i8 0, i64 range(i64 832, 3897) 832, i1 false)
  %3 = getelementptr inbounds nuw i8, ptr %0, i64 16
  store ptr %1, ptr %3, align 8, !tbaa !44
  %4 = getelementptr inbounds nuw i8, ptr %0, i64 128
  store ptr @mi_subproc_default, ptr %4, align 8, !tbaa !30
  %5 = getelementptr inbounds nuw i8, ptr %0, i64 144
  %6 = getelementptr inbounds nuw i8, ptr %0, i64 136
  store ptr %5, ptr %6, align 8, !tbaa !45
  ret void
}